; Function Attrs: nounwind uwtable
define void @Jf_ManTestCnf(ptr noundef %0) local_unnamed_addr #0 {
  %2 = alloca %struct.Jf_Par_t_, align 8
  call void @llvm.lifetime.start.p0(i64 264, ptr nonnull %2) #30
  %3 = getelementptr inbounds nuw i8, ptr %2, i64 8
  call void @llvm.memset.p0.i64(ptr noundef nonnull align 8 dereferenceable(264) %3, i8 0, i64 256, i1 false)
  store i32 6, ptr %2, align 8, !tbaa !93
  %4 = getelementptr inbounds nuw i8, ptr %2, i64 4
  store i32 8, ptr %4, align 4, !tbaa !159
  %5 = getelementptr inbounds nuw i8, ptr %2, i64 12
  store i32 1, ptr %5, align 4, !tbaa !189
  %6 = getelementptr inbounds nuw i8, ptr %2, i64 36
  store i32 5, ptr %6, align 4, !tbaa !79
  %7 = getelementptr inbounds nuw i8, ptr %2, i64 52
  store i32 -1, ptr %7, align 4, !tbaa !230
  %8 = getelementptr inbounds nuw i8, ptr %2, i64 56
  store i32 1, ptr %8, align 8, !tbaa !170
  %9 = getelementptr inbounds nuw i8, ptr %2, i64 72
  store i32 1, ptr %9, align 8, !tbaa !200
  %10 = getelementptr inbounds nuw i8, ptr %2, i64 84
  %11 = getelementptr inbounds nuw i8, ptr %2, i64 144
  call void @llvm.memset.p0.i64(ptr noundef nonnull align 4 dereferenceable(16) %10, i8 0, i64 12, i1 false)
  store i32 8, ptr %11, align 8, !tbaa !231
  %12 = getelementptr inbounds nuw i8, ptr %2, i64 148
  store i32 16, ptr %12, align 4, !tbaa !232
  %13 = getelementptr inbounds nuw i8, ptr %2, i64 96
  store i32 1, ptr %13, align 8, !tbaa !85
  %14 = getelementptr inbounds nuw i8, ptr %2, i64 104
  store i32 1, ptr %14, align 8, !tbaa !218
  %15 = call ptr @Jf_ManPerformMapping(ptr noundef %0, ptr noundef nonnull %2)
  call void @llvm.lifetime.end.p0(i64 264, ptr nonnull %2) #30
  %16 = getelementptr inbounds nuw i8, ptr %15, i64 768
  %17 = load ptr, ptr %16, align 8, !tbaa !220
  store ptr null, ptr %16, align 8, !tbaa !220
  call void @Cnf_DataWriteIntoFile(ptr noundef %17, ptr noundef nonnull @.str.34, i32 noundef 0, ptr noundef null, ptr noundef null) #30
  %18 = getelementptr inbounds nuw i8, ptr %17, i64 8
  %19 = load i32, ptr %18, align 8, !tbaa !48
  %20 = icmp sgt i32 %19, 0
  br i1 %20, label %.lr.ph, label %._crit_edge

.lr.ph:                                           ; preds = %1
  %21 = getelementptr inbounds nuw i8, ptr %17, i64 48
  %22 = getelementptr inbounds nuw i8, ptr %17, i64 40
  br label %23

23:                                               ; preds = %.lr.ph, %23
  %indvars.iv = phi i64 [ 0, %.lr.ph ], [ %indvars.iv.next, %23 ]
  %24 = load ptr, ptr %21, align 8, !tbaa !57
  %25 = getelementptr inbounds nuw i32, ptr %24, i64 %indvars.iv
  %26 = load i32, ptr %25, align 4, !tbaa !14
  %27 = load ptr, ptr %22, align 8, !tbaa !56
  %28 = getelementptr inbounds nuw i32, ptr %27, i64 %indvars.iv
  %29 = load i32, ptr %28, align 4, !tbaa !14
  %30 = trunc nuw nsw i64 %indvars.iv to i32
  %31 = call i32 (ptr, ...) @printf(ptr noundef nonnull dereferenceable(1) @.str.35, i32 noundef %30, i32 noundef %26, i32 noundef %29)
  %indvars.iv.next = add nuw nsw i64 %indvars.iv, 1
  %32 = load i32, ptr %18, align 8, !tbaa !48
  %33 = sext i32 %32 to i64
  %34 = icmp slt i64 %indvars.iv.next, %33
  br i1 %34, label %23, label %._crit_edge, !llvm.loop !238

._crit_edge:                                      ; preds = %23, %1
  call void @Gia_ManStop(ptr noundef %15) #30
  call void @Cnf_DataFree(ptr noundef nonnull %17) #30
  ret void
}